V.container {\u000a  margin: 0 auto;\u000a  width: 45em; }\u000a\u000a  .unstyled-list, .project-list {\u000a    list-style: none;\u000a    margin-left: 0;\u000a    padding-left: 0; }\u000a\u000a    .project span {\u000a      margin-right: 1em; }\u000a      .project span:last-child {\u000a        margin-right: 0; }\u000a
p1
.